target datalayout = "e-m:e-p270:32:32-p271:32:32-p272:64:64-i64:64-i128:128-f80:128-n8:16:32:64-S128"
target triple = "x86_64-pc-linux-gnu"

%struct.SDL_Window = type { i32, ptr, ptr, i32, i32, i32, i32, i32, i32, i32, i32, float, float, i32, i32, i64, i64, float, i8, i8, i32, i32, %struct.SDL_Rect, %struct.SDL_Rect, %struct.SDL_Rect, i8, i8, i8, %struct.SDL_DisplayMode, %struct.SDL_DisplayMode, %struct.SDL_HDROutputProperties, float, ptr, i8, i8, i8, i8, i8, i8, i8, i8, i8, i32, i32, i32, i32, %struct.SDL_Rect, i32, i8, %struct.SDL_Rect, i32, %struct.SDL_Rect, ptr, ptr, i32, float, i32, i32, ptr, ptr, ptr, ptr, ptr, ptr, ptr, ptr, ptr }
%struct.SDL_DisplayMode = type { i32, i32, i32, i32, float, float, i32, i32, ptr }
%struct.SDL_HDROutputProperties = type { float, float }
%struct.SDL_Rect = type { i32, i32, i32, i32 }

@.str.1 = private unnamed_addr constant [41 x i8] c"Video subsystem has not been initialized\00", align 1
@_this = internal global ptr null, align 8
@.str.20 = private unnamed_addr constant [15 x i8] c"Invalid window\00", align 1

; Function Attrs: alwaysinline nounwind uwtable
define internal zeroext i1 @SDL_RectEmpty(ptr noundef %0) #8 {
  %2 = alloca ptr, align 8
  store ptr %0, ptr %2, align 8
  %3 = load ptr, ptr %2, align 8
  %4 = icmp ne ptr %3, null
  br i1 %4, label %5, label %15

5:                                                ; preds = %1
  %6 = load ptr, ptr %2, align 8
  %7 = getelementptr inbounds nuw %struct.SDL_Rect, ptr %6, i32 0, i32 2
  %8 = load i32, ptr %7, align 4
  %9 = icmp sle i32 %8, 0
  br i1 %9, label %15, label %10

10:                                               ; preds = %5
  %11 = load ptr, ptr %2, align 8
  %12 = getelementptr inbounds nuw %struct.SDL_Rect, ptr %11, i32 0, i32 3
  %13 = load i32, ptr %12, align 4
  %14 = icmp sle i32 %13, 0
  br label %15

15:                                               ; preds = %10, %5, %1
  %16 = phi i1 [ true, %5 ], [ true, %1 ], [ %14, %10 ]
  %17 = select i1 %16, i32 1, i32 0
  %18 = icmp ne i32 %17, 0
  ret i1 %18
}

; Function Attrs: nounwind uwtable
define hidden zeroext i1 @SDL_UninitializedVideo() #0 {
  %1 = call zeroext i1 (ptr, ...) @SDL_SetError_REAL(ptr noundef @.str.1)
  ret i1 %1
}

; Function Attrs: nounwind uwtable
define hidden ptr @SDL_GetWindowMouseRect_REAL(ptr noundef %0) #0 {
  %2 = alloca ptr, align 8
  %3 = alloca ptr, align 8
  store ptr %0, ptr %3, align 8
  %4 = load ptr, ptr @_this, align 8
  %5 = icmp ne ptr %4, null
  br i1 %5, label %8, label %6

6:                                                ; preds = %1
  %7 = call zeroext i1 @SDL_UninitializedVideo()
  store ptr null, ptr %2, align 8
  br label %21

8:                                                ; preds = %1
  %9 = load ptr, ptr %3, align 8
  %10 = call zeroext i1 @SDL_ObjectValid(ptr noundef %9, i32 noundef 1)
  br i1 %10, label %13, label %11

11:                                               ; preds = %8
  %12 = call zeroext i1 (ptr, ...) @SDL_SetError_REAL(ptr noundef @.str.20)
  store ptr null, ptr %2, align 8
  br label %21

13:                                               ; preds = %8
  %14 = load ptr, ptr %3, align 8
  %15 = getelementptr inbounds nuw %struct.SDL_Window, ptr %14, i32 0, i32 51
  %16 = call zeroext i1 @SDL_RectEmpty(ptr noundef %15)
  br i1 %16, label %17, label %18

17:                                               ; preds = %13
  store ptr null, ptr %2, align 8
  br label %21

18:                                               ; preds = %13
  %19 = load ptr, ptr %3, align 8
  %20 = getelementptr inbounds nuw %struct.SDL_Window, ptr %19, i32 0, i32 51
  store ptr %20, ptr %2, align 8
  br label %21

21:                                               ; preds = %18, %17, %11, %6
  %22 = load ptr, ptr %2, align 8
  ret ptr %22
}