; Function Attrs: nounwind uwtable
define hidden ptr @SDL_GetWindowMouseRect_REAL(ptr noundef %0) local_unnamed_addr #0 {
  %2 = load ptr, ptr @_this, align 8
  %.not = icmp eq ptr %2, null
  br i1 %.not, label %3, label %5

3:                                                ; preds = %1
  %4 = tail call zeroext i1 (ptr, ...) @SDL_SetError_REAL(ptr noundef nonnull @.str.1) #19
  br label %17

5:                                                ; preds = %1
  %6 = tail call zeroext i1 @SDL_ObjectValid(ptr noundef %0, i32 noundef 1) #19
  br i1 %6, label %9, label %7

7:                                                ; preds = %5
  %8 = tail call zeroext i1 (ptr, ...) @SDL_SetError_REAL(ptr noundef nonnull @.str.20) #19
  br label %17

9:                                                ; preds = %5
  %10 = getelementptr inbounds nuw i8, ptr %0, i64 344
  %11 = load i32, ptr %10, align 4
  %12 = icmp slt i32 %11, 1
  br i1 %12, label %SDL_RectEmpty.exit.thread, label %SDL_RectEmpty.exit

SDL_RectEmpty.exit:                               ; preds = %9
  %13 = getelementptr inbounds nuw i8, ptr %0, i64 336
  %14 = getelementptr inbounds nuw i8, ptr %0, i64 348
  %15 = load i32, ptr %14, align 4
  %.fr = freeze i32 %15
  %16 = icmp slt i32 %.fr, 1
  br i1 %16, label %SDL_RectEmpty.exit.thread, label %17

SDL_RectEmpty.exit.thread:                        ; preds = %9, %SDL_RectEmpty.exit
  br label %17

17:                                               ; preds = %SDL_RectEmpty.exit.thread, %SDL_RectEmpty.exit, %7, %3
  %.0 = phi ptr [ null, %7 ], [ null, %3 ], [ null, %SDL_RectEmpty.exit.thread ], [ %13, %SDL_RectEmpty.exit ]
  ret ptr %.0
}